; Function Attrs: mustprogress uwtable
define hidden noundef zeroext i1 @_ZNK3ue215ComponentRepeat22checkEmbeddedEndAnchorEb(ptr noundef nonnull readonly align 8 captures(none) dereferenceable(96) %0, i1 noundef zeroext %1) unnamed_addr #0 align 2 {
  %3 = getelementptr inbounds nuw i8, ptr %0, i64 24
  %4 = load ptr, ptr %3, align 8
  %5 = load ptr, ptr %4, align 8
  %6 = getelementptr inbounds nuw i8, ptr %5, i64 112
  %7 = load ptr, ptr %6, align 8
  %8 = tail call noundef zeroext i1 %7(ptr noundef nonnull align 8 dereferenceable(16) %4, i1 noundef zeroext %1)
  %9 = getelementptr inbounds nuw i8, ptr %0, i64 36
  %10 = load i32, ptr %9, align 4
  %11 = icmp ugt i32 %10, 1
  br i1 %11, label %12, label %18

12:                                               ; preds = %2
  %13 = load ptr, ptr %3, align 8
  %14 = load ptr, ptr %13, align 8
  %15 = getelementptr inbounds nuw i8, ptr %14, i64 112
  %16 = load ptr, ptr %15, align 8
  %17 = tail call noundef zeroext i1 %16(ptr noundef nonnull align 8 dereferenceable(16) %13, i1 noundef zeroext %8)
  br label %18

18:                                               ; preds = %12, %2
  %.0.in = phi i1 [ %17, %12 ], [ %8, %2 ]
  ret i1 %.0.in
}